; Function Attrs: mustprogress nounwind uwtable
define internal noundef zeroext i1 @_ZN12_GLOBAL__N_115X86DAGToDAGISel20runOnMachineFunctionERN4llvm15MachineFunctionE(ptr noundef nonnull align 8 dereferenceable(288) %0, ptr noundef nonnull align 8 dereferenceable(1041) %1) unnamed_addr #0 align 2 {
  %3 = getelementptr inbounds nuw i8, ptr %1, i64 16
  %4 = load ptr, ptr %3, align 8
  %5 = getelementptr inbounds nuw i8, ptr %0, i64 272
  store ptr %4, ptr %5, align 8
  %6 = load ptr, ptr %1, align 8
  %7 = tail call noundef zeroext i1 @_ZNK4llvm8Function14hasFnAttributeENS_9StringRefE(ptr noundef nonnull align 8 dereferenceable(136) %6, ptr nonnull @.str.11, i64 21) #23
  %8 = getelementptr inbounds nuw i8, ptr %0, i64 281
  %9 = zext i1 %7 to i8
  store i8 %9, ptr %8, align 1
  %10 = load ptr, ptr %1, align 8
  %11 = tail call noundef zeroext i1 @_ZNK4llvm8Function14hasFnAttributeENS_9Attribute8AttrKindE(ptr noundef nonnull align 8 dereferenceable(136) %10, i32 noundef 17) #23
  %12 = getelementptr inbounds nuw i8, ptr %0, i64 280
  %13 = zext i1 %11 to i8
  store i8 %13, ptr %12, align 8
  %14 = tail call noundef zeroext i1 @_ZN4llvm16SelectionDAGISel20runOnMachineFunctionERNS_15MachineFunctionE(ptr noundef nonnull align 8 dereferenceable(272) %0, ptr noundef nonnull align 8 dereferenceable(1041) %1) #23
  ret i1 %14
}